; Function Attrs: nounwind uwtable
define dso_local ptr @list_remove_first(ptr noundef %0, ptr noundef readonly captures(none) %1, ptr noundef %2) #0 {
  %4 = getelementptr inbounds nuw i8, ptr %0, i64 40
  %5 = tail call i32 @pthread_rwlock_wrlock(ptr noundef nonnull %4) #9
  %.not = icmp eq i32 %5, 0
  br i1 %.not, label %.preheader, label %7

.preheader:                                       ; preds = %3
  %.022 = getelementptr inbounds nuw i8, ptr %0, i64 8
  %6 = load ptr, ptr %.022, align 8
  %.not1823 = icmp eq ptr %6, null
  br i1 %.not1823, label %_list_node_destroy.exit, label %.lr.ph

7:                                                ; preds = %3
  %8 = tail call ptr @__errno_location() #10
  store i32 %5, ptr %8, align 4
  tail call void (ptr, ...) @fatal_abort(ptr noundef nonnull @.str.2, ptr noundef nonnull @__func__.list_remove_first) #11
  unreachable

.lr.ph:                                           ; preds = %.preheader, %40
  %9 = phi ptr [ %41, %40 ], [ %6, %.preheader ]
  %.024 = phi ptr [ %.0, %40 ], [ %.022, %.preheader ]
  %10 = load ptr, ptr %9, align 8
  %11 = tail call i32 %1(ptr noundef %10, ptr noundef %2) #9
  %.not19 = icmp eq i32 %11, 0
  %12 = load ptr, ptr %.024, align 8
  br i1 %.not19, label %40, label %13

13:                                               ; preds = %.lr.ph
  %.not.i = icmp eq ptr %12, null
  br i1 %.not.i, label %_list_node_destroy.exit, label %14

14:                                               ; preds = %13
  %15 = load ptr, ptr %12, align 8
  %16 = getelementptr inbounds nuw i8, ptr %12, i64 8
  %17 = load ptr, ptr %16, align 8
  store ptr %17, ptr %.024, align 8
  %.not28.i = icmp eq ptr %17, null
  br i1 %.not28.i, label %18, label %20

18:                                               ; preds = %14
  %19 = getelementptr inbounds nuw i8, ptr %0, i64 16
  store ptr %.024, ptr %19, align 8
  br label %20

20:                                               ; preds = %18, %14
  %21 = getelementptr inbounds nuw i8, ptr %0, i64 4
  %22 = load i32, ptr %21, align 4
  %23 = add nsw i32 %22, -1
  store i32 %23, ptr %21, align 4
  %24 = getelementptr inbounds nuw i8, ptr %0, i64 24
  %.030.i = load ptr, ptr %24, align 8
  %.not2931.i = icmp eq ptr %.030.i, null
  br i1 %.not2931.i, label %._crit_edge.i, label %.lr.ph.i

.lr.ph.i:                                         ; preds = %20, %36
  %.032.i = phi ptr [ %.0.i, %36 ], [ %.030.i, %20 ]
  %25 = getelementptr inbounds nuw i8, ptr %.032.i, i64 16
  %26 = load ptr, ptr %25, align 8
  %27 = icmp eq ptr %26, %12
  br i1 %27, label %28, label %31

28:                                               ; preds = %.lr.ph.i
  %29 = load ptr, ptr %16, align 8
  store ptr %29, ptr %25, align 8
  %30 = getelementptr inbounds nuw i8, ptr %.032.i, i64 24
  store ptr %.024, ptr %30, align 8
  br label %36

31:                                               ; preds = %.lr.ph.i
  %32 = getelementptr inbounds nuw i8, ptr %.032.i, i64 24
  %33 = load ptr, ptr %32, align 8
  %34 = icmp eq ptr %33, %16
  br i1 %34, label %35, label %36

35:                                               ; preds = %31
  store ptr %.024, ptr %32, align 8
  br label %36

36:                                               ; preds = %35, %31, %28
  %37 = getelementptr inbounds nuw i8, ptr %.032.i, i64 32
  %.0.i = load ptr, ptr %37, align 8
  %.not29.i = icmp eq ptr %.0.i, null
  br i1 %.not29.i, label %._crit_edge.i, label %.lr.ph.i, !llvm.loop !17

._crit_edge.i:                                    ; preds = %36, %20
  %38 = getelementptr inbounds nuw i8, ptr %0, i64 96
  %39 = load ptr, ptr %38, align 8
  store ptr %39, ptr %16, align 8
  store ptr %12, ptr %38, align 8
  br label %_list_node_destroy.exit

40:                                               ; preds = %.lr.ph
  %.0 = getelementptr inbounds nuw i8, ptr %12, i64 8
  %41 = load ptr, ptr %.0, align 8
  %.not18 = icmp eq ptr %41, null
  br i1 %.not18, label %_list_node_destroy.exit, label %.lr.ph, !llvm.loop !32

_list_node_destroy.exit:                          ; preds = %40, %.preheader, %._crit_edge.i, %13
  %.014 = phi ptr [ %15, %._crit_edge.i ], [ null, %13 ], [ null, %.preheader ], [ null, %40 ]
  %42 = tail call i32 @pthread_rwlock_unlock(ptr noundef nonnull %4) #9
  %.not20 = icmp eq i32 %42, 0
  br i1 %.not20, label %45, label %43

43:                                               ; preds = %_list_node_destroy.exit
  %44 = tail call ptr @__errno_location() #10
  store i32 %42, ptr %44, align 4
  tail call void (ptr, ...) @fatal_abort(ptr noundef nonnull @.str.3, ptr noundef nonnull @__func__.list_remove_first) #11
  unreachable

45:                                               ; preds = %_list_node_destroy.exit
  ret ptr %.014
}